target datalayout = "e-m:e-p270:32:32-p271:32:32-p272:64:64-i64:64-i128:128-f80:128-n8:16:32:64-S128"
target triple = "x86_64-pc-linux-gnu"

%struct.anon = type { i32, [0 x i8] }
%struct.FunctionCallInfoBaseData = type { ptr, ptr, ptr, i32, i8, i16, [0 x %struct.NullableDatum] }
%struct.NullableDatum = type { i64, i8 }

@.str.2 = private unnamed_addr constant [10 x i8] c"varlena.c\00", align 1
@.str.6 = private unnamed_addr constant [35 x i8] c"index %d out of valid range, 0..%d\00", align 1
@__func__.byteaSetByte = private unnamed_addr constant [13 x i8] c"byteaSetByte\00", align 1

; Function Attrs: inlinehint nounwind uwtable
define internal i64 @PointerGetDatum(ptr noundef %0) #0 {
  %2 = alloca ptr, align 8
  store ptr %0, ptr %2, align 8
  %3 = load ptr, ptr %2, align 8
  %4 = ptrtoint ptr %3 to i64
  ret i64 %4
}

; Function Attrs: inlinehint nounwind uwtable
define internal i32 @DatumGetInt32(i64 noundef %0) #0 {
  %2 = alloca i64, align 8
  store i64 %0, ptr %2, align 8
  %3 = load i64, ptr %2, align 8
  %4 = trunc i64 %3 to i32
  ret i32 %4
}

; Function Attrs: inlinehint nounwind uwtable
define internal ptr @DatumGetPointer(i64 noundef %0) #0 {
  %2 = alloca i64, align 8
  store i64 %0, ptr %2, align 8
  %3 = load i64, ptr %2, align 8
  %4 = inttoptr i64 %3 to ptr
  ret ptr %4
}

; Function Attrs: nounwind uwtable
define dso_local i64 @byteaSetByte(ptr noundef %0) #1 {
  %2 = alloca ptr, align 8
  %3 = alloca ptr, align 8
  %4 = alloca i32, align 4
  %5 = alloca i32, align 4
  %6 = alloca i32, align 4
  store ptr %0, ptr %2, align 8
  call void @llvm.lifetime.start.p0(i64 8, ptr %3) #13
  %7 = load ptr, ptr %2, align 8
  %8 = getelementptr inbounds nuw %struct.FunctionCallInfoBaseData, ptr %7, i32 0, i32 6
  %9 = getelementptr inbounds [0 x %struct.NullableDatum], ptr %8, i64 0, i64 0
  %10 = getelementptr inbounds nuw %struct.NullableDatum, ptr %9, i32 0, i32 0
  %11 = load i64, ptr %10, align 8
  %12 = call ptr @DatumGetPointer(i64 noundef %11)
  %13 = call ptr @pg_detoast_datum_copy(ptr noundef %12)
  store ptr %13, ptr %3, align 8
  call void @llvm.lifetime.start.p0(i64 4, ptr %4) #13
  %14 = load ptr, ptr %2, align 8
  %15 = getelementptr inbounds nuw %struct.FunctionCallInfoBaseData, ptr %14, i32 0, i32 6
  %16 = getelementptr inbounds [0 x %struct.NullableDatum], ptr %15, i64 0, i64 1
  %17 = getelementptr inbounds nuw %struct.NullableDatum, ptr %16, i32 0, i32 0
  %18 = load i64, ptr %17, align 8
  %19 = call i32 @DatumGetInt32(i64 noundef %18)
  store i32 %19, ptr %4, align 4
  call void @llvm.lifetime.start.p0(i64 4, ptr %5) #13
  %20 = load ptr, ptr %2, align 8
  %21 = getelementptr inbounds nuw %struct.FunctionCallInfoBaseData, ptr %20, i32 0, i32 6
  %22 = getelementptr inbounds [0 x %struct.NullableDatum], ptr %21, i64 0, i64 2
  %23 = getelementptr inbounds nuw %struct.NullableDatum, ptr %22, i32 0, i32 0
  %24 = load i64, ptr %23, align 8
  %25 = call i32 @DatumGetInt32(i64 noundef %24)
  store i32 %25, ptr %5, align 4
  call void @llvm.lifetime.start.p0(i64 4, ptr %6) #13
  %26 = load ptr, ptr %3, align 8
  %27 = getelementptr inbounds nuw %struct.anon, ptr %26, i32 0, i32 0
  %28 = load i32, ptr %27, align 4
  %29 = lshr i32 %28, 2
  %30 = and i32 %29, 1073741823
  %31 = sub i32 %30, 4
  store i32 %31, ptr %6, align 4
  %32 = load i32, ptr %4, align 4
  %33 = icmp slt i32 %32, 0
  br i1 %33, label %38, label %34

34:                                               ; preds = %1
  %35 = load i32, ptr %4, align 4
  %36 = load i32, ptr %6, align 4
  %37 = icmp sge i32 %35, %36
  br i1 %37, label %38, label %53

38:                                               ; preds = %34, %1
  br label %39

39:                                               ; preds = %38
  br i1 true, label %40, label %42

40:                                               ; preds = %39
  %41 = call zeroext i1 @errstart_cold(i32 noundef 21, ptr noundef null) #14
  br i1 %41, label %44, label %50

42:                                               ; preds = %39
  %43 = call zeroext i1 @errstart(i32 noundef 21, ptr noundef null)
  br i1 %43, label %44, label %50

44:                                               ; preds = %42, %40
  %45 = call i32 @errcode(i32 noundef 352845954)
  %46 = load i32, ptr %4, align 4
  %47 = load i32, ptr %6, align 4
  %48 = sub i32 %47, 1
  %49 = call i32 (ptr, ...) @errmsg(ptr noundef @.str.6, i32 noundef %46, i32 noundef %48)
  call void @errfinish(ptr noundef @.str.2, i32 noundef 3264, ptr noundef @__func__.byteaSetByte)
  br label %50

50:                                               ; preds = %44, %42, %40
  unreachable

51:                                               ; No predecessors!
  br label %52

52:                                               ; preds = %51
  br label %53

53:                                               ; preds = %52, %34
  %54 = load i32, ptr %5, align 4
  %55 = trunc i32 %54 to i8
  %56 = load ptr, ptr %3, align 8
  %57 = getelementptr inbounds nuw %struct.anon, ptr %56, i32 0, i32 1
  %58 = getelementptr inbounds [0 x i8], ptr %57, i64 0, i64 0
  %59 = load i32, ptr %4, align 4
  %60 = sext i32 %59 to i64
  %61 = getelementptr inbounds i8, ptr %58, i64 %60
  store i8 %55, ptr %61, align 1
  %62 = load ptr, ptr %3, align 8
  %63 = call i64 @PointerGetDatum(ptr noundef %62)
  call void @llvm.lifetime.end.p0(i64 4, ptr %6) #13
  call void @llvm.lifetime.end.p0(i64 4, ptr %5) #13
  call void @llvm.lifetime.end.p0(i64 4, ptr %4) #13
  call void @llvm.lifetime.end.p0(i64 8, ptr %3) #13
  ret i64 %63
}