; Function Attrs: nounwind uwtable
define dso_local noundef i64 @byteaSetByte(ptr noundef readonly captures(none) %0) local_unnamed_addr #0 {
  %2 = getelementptr inbounds nuw i8, ptr %0, i64 32
  %3 = load i64, ptr %2, align 8
  %4 = inttoptr i64 %3 to ptr
  %5 = tail call ptr @pg_detoast_datum_copy(ptr noundef %4) #19
  %6 = getelementptr inbounds nuw i8, ptr %0, i64 48
  %7 = load i64, ptr %6, align 8
  %8 = trunc i64 %7 to i32
  %9 = load i32, ptr %5, align 4
  %10 = lshr i32 %9, 2
  %11 = icmp sgt i32 %8, -1
  %12 = add nsw i32 %10, -4
  %.not = icmp sgt i32 %12, %8
  %or.cond = select i1 %11, i1 %.not, i1 false
  br i1 %or.cond, label %18, label %13

13:                                               ; preds = %1
  %14 = tail call zeroext i1 @errstart_cold(i32 noundef 21, ptr noundef null) #20
  tail call void @llvm.assume(i1 %14)
  %15 = tail call i32 @errcode(i32 noundef 352845954) #19
  %16 = add nsw i32 %10, -5
  %17 = tail call i32 (ptr, ...) @errmsg(ptr noundef nonnull @.str.6, i32 noundef %8, i32 noundef %16) #19
  tail call void @errfinish(ptr noundef nonnull @.str.2, i32 noundef 3264, ptr noundef nonnull @__func__.byteaSetByte) #19
  unreachable

18:                                               ; preds = %1
  %19 = getelementptr inbounds nuw i8, ptr %0, i64 64
  %20 = load i64, ptr %19, align 8
  %21 = trunc i64 %20 to i8
  %22 = getelementptr inbounds nuw i8, ptr %5, i64 4
  %23 = and i64 %7, 2147483647
  %24 = getelementptr inbounds nuw i8, ptr %22, i64 %23
  store i8 %21, ptr %24, align 1
  %25 = ptrtoint ptr %5 to i64
  ret i64 %25
}